; Function Attrs: nounwind uwtable
define dso_local void @sismemberCommand(ptr noundef %0) local_unnamed_addr #0 {
  %2 = getelementptr inbounds nuw i8, ptr %0, i64 96
  %3 = load ptr, ptr %2, align 8, !tbaa !72
  %4 = getelementptr inbounds nuw i8, ptr %3, i64 8
  %5 = load ptr, ptr %4, align 8, !tbaa !73
  %6 = load ptr, ptr getelementptr inbounds nuw (i8, ptr @shared, i64 24), align 8, !tbaa !79
  %7 = tail call ptr @lookupKeyReadOrReply(ptr noundef %0, ptr noundef %5, ptr noundef %6) #10
  %8 = icmp eq ptr %7, null
  br i1 %8, label %42, label %9

9:                                                ; preds = %1
  %10 = tail call i32 @checkType(ptr noundef nonnull %0, ptr noundef nonnull %7, i32 noundef 2) #10
  %.not = icmp eq i32 %10, 0
  br i1 %.not, label %11, label %42

11:                                               ; preds = %9
  %12 = load ptr, ptr %2, align 8, !tbaa !72
  %13 = getelementptr inbounds nuw i8, ptr %12, i64 16
  %14 = load ptr, ptr %13, align 8, !tbaa !73
  %15 = getelementptr inbounds nuw i8, ptr %14, i64 8
  %16 = load ptr, ptr %15, align 8, !tbaa !38
  %17 = getelementptr inbounds i8, ptr %16, i64 -1
  %18 = load i8, ptr %17, align 1, !tbaa !54
  %19 = zext i8 %18 to i32
  %20 = and i32 %19, 7
  switch i32 %20, label %setTypeIsMember.exit [
    i32 0, label %21
    i32 1, label %24
    i32 2, label %28
    i32 3, label %32
    i32 4, label %36
  ]

21:                                               ; preds = %11
  %22 = lshr i32 %19, 3
  %23 = zext nneg i32 %22 to i64
  br label %setTypeIsMember.exit

24:                                               ; preds = %11
  %25 = getelementptr inbounds i8, ptr %16, i64 -3
  %26 = load i8, ptr %25, align 1, !tbaa !54
  %27 = zext i8 %26 to i64
  br label %setTypeIsMember.exit

28:                                               ; preds = %11
  %29 = getelementptr inbounds i8, ptr %16, i64 -5
  %30 = load i16, ptr %29, align 1, !tbaa !55
  %31 = zext i16 %30 to i64
  br label %setTypeIsMember.exit

32:                                               ; preds = %11
  %33 = getelementptr inbounds i8, ptr %16, i64 -9
  %34 = load i32, ptr %33, align 1, !tbaa !57
  %35 = zext i32 %34 to i64
  br label %setTypeIsMember.exit

36:                                               ; preds = %11
  %37 = getelementptr inbounds i8, ptr %16, i64 -17
  %38 = load i64, ptr %37, align 1, !tbaa !50
  br label %setTypeIsMember.exit

setTypeIsMember.exit:                             ; preds = %11, %21, %24, %28, %32, %36
  %.0.i.i = phi i64 [ %38, %36 ], [ %35, %32 ], [ %31, %28 ], [ %27, %24 ], [ %23, %21 ], [ 0, %11 ]
  %39 = tail call range(i32 0, 256) i32 @setTypeIsMemberAux(ptr noundef nonnull readonly %7, ptr noundef nonnull %16, i64 noundef %.0.i.i, i64 noundef 0, i32 noundef 1)
  %.not8 = icmp eq i32 %39, 0
  %40 = load ptr, ptr getelementptr inbounds nuw (i8, ptr @shared, i64 32), align 8
  %41 = load ptr, ptr getelementptr inbounds nuw (i8, ptr @shared, i64 24), align 8
  %.sink = select i1 %.not8, ptr %41, ptr %40
  tail call void @addReply(ptr noundef nonnull %0, ptr noundef %.sink) #10
  br label %42

42:                                               ; preds = %setTypeIsMember.exit, %1, %9
  ret void
}